target datalayout = "e-m:e-p270:32:32-p271:32:32-p272:64:64-i64:64-i128:128-f80:128-n8:16:32:64-S128"
target triple = "x86_64-pc-linux-gnu"

%"struct.folly::NetworkSocket" = type { i32 }

; Function Attrs: mustprogress nounwind uwtable
define linkonce_odr void @_ZN5folly13NetworkSocketC2Ei(ptr noundef nonnull align 4 dereferenceable(4) %0, i32 noundef %1) unnamed_addr #3 comdat align 2 {
  %3 = alloca ptr, align 8
  %4 = alloca i32, align 4
  store ptr %0, ptr %3, align 8, !tbaa !20
  store i32 %1, ptr %4, align 4, !tbaa !15
  %5 = load ptr, ptr %3, align 8
  %6 = getelementptr inbounds nuw %"struct.folly::NetworkSocket", ptr %5, i32 0, i32 0
  %7 = load i32, ptr %4, align 4, !tbaa !15
  store i32 %7, ptr %6, align 4, !tbaa !18
  ret void
}

; Function Attrs: mustprogress uwtable
define noundef i32 @_ZN5folly6netops10socketpairEiiiPNS_13NetworkSocketE(i32 noundef %0, i32 noundef %1, i32 noundef %2, ptr noundef %3) #0 {
  %5 = alloca i32, align 4
  %6 = alloca i32, align 4
  %7 = alloca i32, align 4
  %8 = alloca i32, align 4
  %9 = alloca ptr, align 8
  %10 = alloca [2 x i32], align 4
  %11 = alloca i32, align 4
  %12 = alloca i32, align 4
  %13 = alloca %"struct.folly::NetworkSocket", align 4
  %14 = alloca %"struct.folly::NetworkSocket", align 4
  store i32 %0, ptr %6, align 4, !tbaa !15
  store i32 %1, ptr %7, align 4, !tbaa !15
  store i32 %2, ptr %8, align 4, !tbaa !15
  store ptr %3, ptr %9, align 8, !tbaa !20
  call void @llvm.lifetime.start.p0(i64 8, ptr %10) #8
  call void @llvm.lifetime.start.p0(i64 4, ptr %11) #8
  %15 = load i32, ptr %6, align 4, !tbaa !15
  %16 = load i32, ptr %7, align 4, !tbaa !15
  %17 = load i32, ptr %8, align 4, !tbaa !15
  %18 = getelementptr inbounds [2 x i32], ptr %10, i64 0, i64 0
  %19 = call i32 @socketpair(i32 noundef %15, i32 noundef %16, i32 noundef %17, ptr noundef %18) #8
  store i32 %19, ptr %11, align 4, !tbaa !15
  %20 = load i32, ptr %11, align 4, !tbaa !15
  %21 = icmp eq i32 %20, -1
  br i1 %21, label %22, label %24

22:                                               ; preds = %4
  %23 = load i32, ptr %11, align 4, !tbaa !15
  store i32 %23, ptr %5, align 4
  store i32 1, ptr %12, align 4
  br label %34

24:                                               ; preds = %4
  call void @llvm.lifetime.start.p0(i64 4, ptr %13) #8
  %25 = getelementptr inbounds [2 x i32], ptr %10, i64 0, i64 0
  %26 = load i32, ptr %25, align 4, !tbaa !15
  call void @_ZN5folly13NetworkSocketC2Ei(ptr noundef nonnull align 4 dereferenceable(4) %13, i32 noundef %26)
  %27 = load ptr, ptr %9, align 8, !tbaa !20
  %28 = getelementptr inbounds %"struct.folly::NetworkSocket", ptr %27, i64 0
  call void @llvm.memcpy.p0.p0.i64(ptr align 4 %28, ptr align 4 %13, i64 4, i1 false), !tbaa.struct !14
  call void @llvm.lifetime.end.p0(i64 4, ptr %13) #8
  call void @llvm.lifetime.start.p0(i64 4, ptr %14) #8
  %29 = getelementptr inbounds [2 x i32], ptr %10, i64 0, i64 1
  %30 = load i32, ptr %29, align 4, !tbaa !15
  call void @_ZN5folly13NetworkSocketC2Ei(ptr noundef nonnull align 4 dereferenceable(4) %14, i32 noundef %30)
  %31 = load ptr, ptr %9, align 8, !tbaa !20
  %32 = getelementptr inbounds %"struct.folly::NetworkSocket", ptr %31, i64 1
  call void @llvm.memcpy.p0.p0.i64(ptr align 4 %32, ptr align 4 %14, i64 4, i1 false), !tbaa.struct !14
  call void @llvm.lifetime.end.p0(i64 4, ptr %14) #8
  %33 = load i32, ptr %11, align 4, !tbaa !15
  store i32 %33, ptr %5, align 4
  store i32 1, ptr %12, align 4
  br label %34

34:                                               ; preds = %24, %22
  call void @llvm.lifetime.end.p0(i64 4, ptr %11) #8
  call void @llvm.lifetime.end.p0(i64 8, ptr %10) #8
  %35 = load i32, ptr %5, align 4
  ret i32 %35
}