; Function Attrs: mustprogress nounwind uwtable
define noundef i32 @_ZN5folly6netops10socketpairEiiiPNS_13NetworkSocketE(i32 noundef %0, i32 noundef %1, i32 noundef %2, ptr noundef writeonly captures(none) %3) local_unnamed_addr #3 {
  %5 = alloca [2 x i32], align 4
  call void @llvm.lifetime.start.p0(i64 8, ptr nonnull %5) #11
  %6 = call i32 @socketpair(i32 noundef %0, i32 noundef %1, i32 noundef %2, ptr noundef nonnull %5) #11
  %7 = icmp eq i32 %6, -1
  br i1 %7, label %13, label %8

8:                                                ; preds = %4
  %9 = load i32, ptr %5, align 4, !tbaa !14
  store i32 %9, ptr %3, align 4, !tbaa !14
  %10 = getelementptr inbounds nuw i8, ptr %5, i64 4
  %11 = load i32, ptr %10, align 4, !tbaa !14
  %12 = getelementptr inbounds nuw i8, ptr %3, i64 4
  store i32 %11, ptr %12, align 4, !tbaa !14
  br label %13

13:                                               ; preds = %4, %8
  call void @llvm.lifetime.end.p0(i64 8, ptr nonnull %5) #11
  ret i32 %6
}